; Function Attrs: nofree norecurse nounwind memory(argmem: readwrite, inaccessiblemem: readwrite) uwtable
define range(i32 -192, 1) i32 @wc_Sha384Final(ptr noundef captures(address_is_null) %0, ptr noundef writeonly captures(address_is_null) %1) local_unnamed_addr #1 {
  %3 = icmp eq ptr %0, null
  %4 = icmp eq ptr %1, null
  %or.cond = or i1 %3, %4
  br i1 %or.cond, label %Sha512Final.exit, label %5

5:                                                ; preds = %2
  %6 = getelementptr inbounds nuw i8, ptr %0, i64 64
  %7 = getelementptr inbounds nuw i8, ptr %0, i64 192
  %8 = load i32, ptr %7, align 8, !tbaa !11
  %9 = icmp ugt i32 %8, 127
  br i1 %9, label %Sha512Final.exit, label %10

10:                                               ; preds = %5
  %11 = add nuw nsw i32 %8, 1
  store i32 %11, ptr %7, align 8, !tbaa !11
  %12 = zext nneg i32 %8 to i64
  %13 = getelementptr inbounds nuw i8, ptr %6, i64 %12
  store i8 -128, ptr %13, align 1, !tbaa !17
  %14 = load i32, ptr %7, align 8, !tbaa !11
  %15 = icmp ugt i32 %14, 112
  br i1 %15, label %16, label %27

16:                                               ; preds = %10
  %17 = icmp ult i32 %14, 128
  br i1 %17, label %18, label %23

18:                                               ; preds = %16
  %19 = zext nneg i32 %14 to i64
  %20 = getelementptr inbounds nuw i8, ptr %6, i64 %19
  %21 = sub nuw nsw i32 128, %14
  %22 = zext nneg i32 %21 to i64
  tail call void @llvm.memset.p0.i64(ptr nonnull align 1 %20, i8 0, i64 %22, i1 false)
  br label %23

23:                                               ; preds = %18, %16
  store i32 128, ptr %7, align 8, !tbaa !11
  br label %.lr.ph.i.i

.lr.ph.i.i:                                       ; preds = %.lr.ph.i.i, %23
  %indvars.iv.i.i = phi i64 [ 0, %23 ], [ %indvars.iv.next.i.i, %.lr.ph.i.i ]
  %24 = getelementptr inbounds nuw i64, ptr %6, i64 %indvars.iv.i.i
  %25 = load i64, ptr %24, align 8, !tbaa !10
  %26 = tail call noundef i64 @llvm.bswap.i64(i64 %25)
  store i64 %26, ptr %24, align 8, !tbaa !10
  %indvars.iv.next.i.i = add nuw nsw i64 %indvars.iv.i.i, 1
  %exitcond.not.i.i = icmp eq i64 %indvars.iv.next.i.i, 16
  br i1 %exitcond.not.i.i, label %ByteReverseWords64.exit.i, label %.lr.ph.i.i, !llvm.loop !14

ByteReverseWords64.exit.i:                        ; preds = %.lr.ph.i.i
  tail call fastcc void @_Transform_Sha512(ptr noundef nonnull %0)
  store i32 0, ptr %7, align 8, !tbaa !11
  br label %27

27:                                               ; preds = %ByteReverseWords64.exit.i, %10
  %28 = phi i32 [ 0, %ByteReverseWords64.exit.i ], [ %14, %10 ]
  %29 = zext nneg i32 %28 to i64
  %30 = getelementptr inbounds nuw i8, ptr %6, i64 %29
  %31 = sub nuw nsw i32 112, %28
  %32 = zext nneg i32 %31 to i64
  tail call void @llvm.memset.p0.i64(ptr nonnull align 1 %30, i8 0, i64 %32, i1 false)
  %33 = getelementptr inbounds nuw i8, ptr %0, i64 200
  %34 = load i64, ptr %33, align 8, !tbaa !12
  %35 = getelementptr inbounds nuw i8, ptr %0, i64 208
  %36 = load i64, ptr %35, align 8, !tbaa !13
  %37 = tail call i64 @llvm.fshl.i64(i64 %36, i64 %34, i64 3)
  store i64 %37, ptr %35, align 8, !tbaa !13
  %38 = shl i64 %34, 3
  store i64 %38, ptr %33, align 8, !tbaa !12
  br label %.lr.ph.i42.i

.lr.ph.i42.i:                                     ; preds = %.lr.ph.i42.i, %27
  %indvars.iv.i43.i = phi i64 [ 0, %27 ], [ %indvars.iv.next.i44.i, %.lr.ph.i42.i ]
  %39 = getelementptr inbounds nuw i64, ptr %6, i64 %indvars.iv.i43.i
  %40 = load i64, ptr %39, align 8, !tbaa !10
  %41 = tail call noundef i64 @llvm.bswap.i64(i64 %40)
  store i64 %41, ptr %39, align 8, !tbaa !10
  %indvars.iv.next.i44.i = add nuw nsw i64 %indvars.iv.i43.i, 1
  %exitcond.not.i45.i = icmp eq i64 %indvars.iv.next.i44.i, 14
  br i1 %exitcond.not.i45.i, label %ByteReverseWords64.exit46.i, label %.lr.ph.i42.i, !llvm.loop !14

ByteReverseWords64.exit46.i:                      ; preds = %.lr.ph.i42.i
  %42 = load i64, ptr %35, align 8, !tbaa !13
  %43 = getelementptr inbounds nuw i8, ptr %0, i64 176
  store i64 %42, ptr %43, align 8, !tbaa !10
  %44 = load i64, ptr %33, align 8, !tbaa !12
  %45 = getelementptr inbounds nuw i8, ptr %0, i64 184
  store i64 %44, ptr %45, align 8, !tbaa !10
  tail call fastcc void @_Transform_Sha512(ptr noundef nonnull %0)
  br label %.lr.ph.i47.i

.lr.ph.i47.i:                                     ; preds = %.lr.ph.i47.i, %ByteReverseWords64.exit46.i
  %indvars.iv.i48.i = phi i64 [ 0, %ByteReverseWords64.exit46.i ], [ %indvars.iv.next.i49.i, %.lr.ph.i47.i ]
  %46 = getelementptr inbounds nuw i64, ptr %0, i64 %indvars.iv.i48.i
  %47 = load i64, ptr %46, align 8, !tbaa !10
  %48 = tail call noundef i64 @llvm.bswap.i64(i64 %47)
  store i64 %48, ptr %46, align 8, !tbaa !10
  %indvars.iv.next.i49.i = add nuw nsw i64 %indvars.iv.i48.i, 1
  %exitcond.not.i50.i = icmp eq i64 %indvars.iv.next.i49.i, 8
  br i1 %exitcond.not.i50.i, label %49, label %.lr.ph.i47.i, !llvm.loop !14

49:                                               ; preds = %.lr.ph.i47.i
  tail call void @llvm.memcpy.p0.p0.i64(ptr noundef nonnull align 1 dereferenceable(48) %1, ptr noundef nonnull align 8 dereferenceable(48) %0, i64 48, i1 false)
  store i64 -3766243637369397544, ptr %0, align 8, !tbaa !10
  %50 = getelementptr inbounds nuw i8, ptr %0, i64 8
  store i64 7105036623409894663, ptr %50, align 8, !tbaa !10
  %51 = getelementptr inbounds nuw i8, ptr %0, i64 16
  store i64 -7973340178411365097, ptr %51, align 8, !tbaa !10
  %52 = getelementptr inbounds nuw i8, ptr %0, i64 24
  store i64 1526699215303891257, ptr %52, align 8, !tbaa !10
  %53 = getelementptr inbounds nuw i8, ptr %0, i64 32
  store i64 7436329637833083697, ptr %53, align 8, !tbaa !10
  %54 = getelementptr inbounds nuw i8, ptr %0, i64 40
  store i64 -8163818279084223215, ptr %54, align 8, !tbaa !10
  %55 = getelementptr inbounds nuw i8, ptr %0, i64 48
  store i64 -2662702644619276377, ptr %55, align 8, !tbaa !10
  %56 = getelementptr inbounds nuw i8, ptr %0, i64 56
  store i64 5167115440072839076, ptr %56, align 8, !tbaa !10
  store i32 0, ptr %7, align 8, !tbaa !11
  tail call void @llvm.memset.p0.i64(ptr noundef nonnull align 8 dereferenceable(16) %33, i8 0, i64 16, i1 false)
  br label %Sha512Final.exit

Sha512Final.exit:                                 ; preds = %5, %2, %49
  %.0 = phi i32 [ 0, %49 ], [ -173, %2 ], [ -192, %5 ]
  ret i32 %.0
}